target datalayout = "e-m:e-p270:32:32-p271:32:32-p272:64:64-i64:64-i128:128-f80:128-n8:16:32:64-S128"
target triple = "x86_64-pc-linux-gnu"

; Function Attrs: mustprogress uwtable
define hidden noundef zeroext i1 @_ZNK2cv7details10Chessboard5Board12isHorizontalEv(ptr noundef nonnull align 8 dereferenceable(80) %0) #5 align 2 {
  %2 = alloca i1, align 1
  %3 = alloca ptr, align 8
  %4 = alloca double, align 8
  %5 = alloca i32, align 4
  store ptr %0, ptr %3, align 8, !tbaa !236
  %6 = load ptr, ptr %3, align 8
  call void @llvm.lifetime.start.p0(i64 8, ptr %4) #3
  %7 = call noundef float @_ZNK2cv7details10Chessboard5Board8getAngleEv(ptr noundef nonnull align 8 dereferenceable(80) %6)
  %8 = fpext float %7 to double
  store double %8, ptr %4, align 8, !tbaa !37
  %9 = load double, ptr %4, align 8, !tbaa !37
  %10 = fcmp olt double %9, 0x3FE921FB54442D18
  br i1 %10, label %11, label %14

11:                                               ; preds = %1
  %12 = load double, ptr %4, align 8, !tbaa !37
  %13 = fcmp ogt double %12, 0xBFE921FB54442D18
  br i1 %13, label %20, label %14

14:                                               ; preds = %11, %1
  %15 = load double, ptr %4, align 8, !tbaa !37
  %16 = fcmp ogt double %15, 0x4002D97C7F3321D2
  br i1 %16, label %20, label %17

17:                                               ; preds = %14
  %18 = load double, ptr %4, align 8, !tbaa !37
  %19 = fcmp olt double %18, 0xC002D97C7F3321D2
  br i1 %19, label %20, label %21

20:                                               ; preds = %17, %14, %11
  store i1 true, ptr %2, align 1
  store i32 1, ptr %5, align 4
  br label %22

21:                                               ; preds = %17
  store i1 false, ptr %2, align 1
  store i32 1, ptr %5, align 4
  br label %22

22:                                               ; preds = %21, %20
  call void @llvm.lifetime.end.p0(i64 8, ptr %4) #3
  %23 = load i1, ptr %2, align 1
  ret i1 %23
}