; Function Attrs: mustprogress uwtable
define hidden noundef zeroext i1 @_ZNK2cv7details10Chessboard5Board12isHorizontalEv(ptr noundef nonnull readonly align 8 captures(none) dereferenceable(80) %0) local_unnamed_addr #5 align 2 {
  %2 = tail call noundef float @_ZNK2cv7details10Chessboard5Board8getAngleEv(ptr noundef nonnull align 8 dereferenceable(80) %0)
  %3 = tail call float @llvm.fabs.f32(float %2)
  %4 = fpext float %3 to double
  %or.cond = fcmp olt double %4, 0x3FE921FB54442D18
  %5 = fcmp ogt double %4, 0x4002D97C7F3321D2
  %or.cond5 = or i1 %or.cond, %5
  ret i1 %or.cond5
}